target datalayout = "e-m:e-p270:32:32-p271:32:32-p272:64:64-i64:64-i128:128-f80:128-n8:16:32:64-S128"
target triple = "x86_64-pc-linux-gnu"

%struct.slurm_conf_t = type { i64, ptr, i16, ptr, ptr, ptr, ptr, ptr, i16, ptr, ptr, ptr, ptr, ptr, ptr, ptr, i16, ptr, ptr, ptr, ptr, i16, ptr, ptr, ptr, i64, ptr, ptr, ptr, ptr, i16, ptr, ptr, i16, i32, ptr, i32, ptr, i32, i32, ptr, ptr, i64, i64, ptr, i16, i16, ptr, i32, i32, ptr, i32, ptr, i32, i16, i16, i16, ptr, i16, i16, ptr, ptr, i32, i16, i16, ptr, i32, i16, ptr, ptr, ptr, ptr, i16, ptr, ptr, ptr, ptr, i32, ptr, ptr, ptr, ptr, i16, i16, ptr, i32, i32, i32, i16, i16, ptr, ptr, i16, ptr, ptr, i32, i32, i32, i32, i32, i64, i32, i32, i16, ptr, ptr, i32, ptr, ptr, ptr, i16, i32, ptr, ptr, i16, ptr, ptr, i32, i16, ptr, ptr, ptr, ptr, i32, i32, i16, i16, i32, ptr, i16, ptr, i32, i32, i32, i32, i32, i32, ptr, i16, ptr, ptr, i32, i16, ptr, i32, i16, i16, ptr, ptr, ptr, i16, ptr, ptr, ptr, ptr, i16, i16, ptr, i16, ptr, i16, ptr, i16, ptr, i16, ptr, ptr, ptr, ptr, i16, ptr, ptr, ptr, i32, ptr, i32, ptr, ptr, i16, ptr, ptr, i32, i16, ptr, ptr, i16, i16, ptr, i16, ptr, ptr, ptr, i32, ptr, i16, i16, ptr, ptr, ptr, ptr, ptr, ptr, ptr, ptr, i16, i32, i16, ptr, ptr, ptr, ptr, i32, ptr, ptr, ptr, i16, ptr, ptr, ptr, i16, ptr, i16, ptr, i16, i16, ptr }
%struct.slurm_step_id_msg = type { i64, i32, i32, i32 }
%struct.slurm_msg = type { %struct.sockaddr_storage, ptr, i32, i32, i32, i8, i32, i8, i32, ptr, ptr, i32, ptr, ptr, i16, i8, i16, i16, %struct.forward, ptr, %struct.sockaddr_storage, ptr }
%struct.forward = type { %struct.slurm_node_alias_addrs_t, i16, i16, ptr, i32, i16, i16 }
%struct.slurm_node_alias_addrs_t = type { i64, ptr, ptr, i32, ptr }
%struct.sockaddr_storage = type { i16, [118 x i8], i64 }
%struct.return_code_msg = type { i32 }
%struct.reroute_msg_t = type { ptr, ptr }

@slurm_conf = external global %struct.slurm_conf_t, align 8
@working_cluster_rec = external global ptr, align 8

; Function Attrs: nounwind uwtable
define dso_local ptr @slurm_job_step_layout_get(ptr noundef %0) #0 {
  %2 = alloca ptr, align 8
  %3 = alloca ptr, align 8
  %4 = alloca %struct.slurm_step_id_msg, align 8
  %5 = alloca %struct.slurm_msg, align 8
  %6 = alloca %struct.slurm_msg, align 8
  %7 = alloca i32, align 4
  %8 = alloca ptr, align 8
  %9 = alloca ptr, align 8
  %10 = alloca i32, align 4
  %11 = alloca ptr, align 8
  store ptr %0, ptr %3, align 8
  call void @llvm.lifetime.start.p0(i64 24, ptr %4) #8
  call void @llvm.lifetime.start.p0(i64 424, ptr %5) #8
  call void @llvm.lifetime.start.p0(i64 424, ptr %6) #8
  call void @llvm.lifetime.start.p0(i64 4, ptr %7) #8
  call void @llvm.lifetime.start.p0(i64 8, ptr %8) #8
  store ptr null, ptr %8, align 8
  call void @slurm_msg_t_init(ptr noundef %5)
  call void @slurm_msg_t_init(ptr noundef %6)
  %12 = getelementptr inbounds nuw %struct.slurm_msg, ptr %5, i32 0, i32 16
  store i16 5021, ptr %12, align 4
  %13 = getelementptr inbounds nuw %struct.slurm_msg, ptr %5, i32 0, i32 13
  store ptr %4, ptr %13, align 8
  %14 = load ptr, ptr %3, align 8
  call void @llvm.memcpy.p0.p0.i64(ptr align 8 %4, ptr align 8 %14, i64 24, i1 false)
  br label %15

15:                                               ; preds = %73, %1
  %16 = load ptr, ptr %8, align 8
  %17 = icmp ne ptr %16, null
  br i1 %17, label %18, label %50

18:                                               ; preds = %15
  %19 = load i32, ptr getelementptr inbounds nuw (%struct.slurm_conf_t, ptr @slurm_conf, i32 0, i32 175), align 8
  call void @slurm_msg_set_r_uid(ptr noundef %5, i32 noundef %19)
  %20 = load ptr, ptr %8, align 8
  %21 = getelementptr inbounds nuw %struct.slurm_msg, ptr %5, i32 0, i32 0
  %22 = getelementptr inbounds nuw %struct.slurm_msg, ptr %5, i32 0, i32 14
  %23 = load i16, ptr %22, align 8
  %24 = call i32 @slurm_conf_get_addr(ptr noundef %20, ptr noundef %21, i16 noundef zeroext %23)
  %25 = icmp ne i32 %24, 0
  br i1 %25, label %26, label %45

26:                                               ; preds = %18
  call void @llvm.lifetime.start.p0(i64 8, ptr %9) #8
  %27 = load ptr, ptr %8, align 8
  %28 = call i32 @slurm_get_node_alias_addrs(ptr noundef %27, ptr noundef %9)
  %29 = icmp ne i32 %28, 0
  br i1 %29, label %38, label %30

30:                                               ; preds = %26
  %31 = load ptr, ptr %9, align 8
  %32 = getelementptr inbounds nuw %struct.slurm_node_alias_addrs_t, ptr %31, i32 0, i32 4
  %33 = load ptr, ptr %32, align 8
  %34 = load ptr, ptr %9, align 8
  %35 = getelementptr inbounds nuw %struct.slurm_node_alias_addrs_t, ptr %34, i32 0, i32 2
  %36 = load ptr, ptr %35, align 8
  %37 = call i32 @add_remote_nodes_to_conf_tbls(ptr noundef %33, ptr noundef %36)
  br label %38

38:                                               ; preds = %30, %26
  %39 = load ptr, ptr %9, align 8
  call void @slurm_free_node_alias_addrs(ptr noundef %39)
  %40 = load ptr, ptr %8, align 8
  %41 = getelementptr inbounds nuw %struct.slurm_msg, ptr %5, i32 0, i32 0
  %42 = getelementptr inbounds nuw %struct.slurm_msg, ptr %5, i32 0, i32 14
  %43 = load i16, ptr %42, align 8
  %44 = call i32 @slurm_conf_get_addr(ptr noundef %40, ptr noundef %41, i16 noundef zeroext %43)
  call void @llvm.lifetime.end.p0(i64 8, ptr %9) #8
  br label %45

45:                                               ; preds = %38, %18
  call void @slurm_xfree(ptr noundef %8)
  %46 = call i32 @slurm_send_recv_node_msg(ptr noundef %5, ptr noundef %6, i32 noundef 0)
  %47 = icmp ne i32 %46, 0
  br i1 %47, label %48, label %49

48:                                               ; preds = %45
  store ptr null, ptr %2, align 8
  store i32 1, ptr %10, align 4
  br label %89

49:                                               ; preds = %45
  br label %56

50:                                               ; preds = %15
  %51 = load ptr, ptr @working_cluster_rec, align 8
  %52 = call i32 @slurm_send_recv_controller_msg(ptr noundef %5, ptr noundef %6, ptr noundef %51)
  %53 = icmp slt i32 %52, 0
  br i1 %53, label %54, label %55

54:                                               ; preds = %50
  store ptr null, ptr %2, align 8
  store i32 1, ptr %10, align 4
  br label %89

55:                                               ; preds = %50
  br label %56

56:                                               ; preds = %55, %49
  %57 = getelementptr inbounds nuw %struct.slurm_msg, ptr %6, i32 0, i32 16
  %58 = load i16, ptr %57, align 4
  %59 = zext i16 %58 to i32
  switch i32 %59, label %87 [
    i32 8003, label %60
    i32 5022, label %75
    i32 8001, label %78
  ]

60:                                               ; preds = %56
  call void @llvm.lifetime.start.p0(i64 8, ptr %11) #8
  %61 = getelementptr inbounds nuw %struct.slurm_msg, ptr %6, i32 0, i32 13
  %62 = load ptr, ptr %61, align 8
  store ptr %62, ptr %11, align 8
  %63 = load ptr, ptr %11, align 8
  %64 = getelementptr inbounds nuw %struct.reroute_msg_t, ptr %63, i32 0, i32 0
  %65 = load ptr, ptr %64, align 8
  store ptr %65, ptr %8, align 8
  %66 = load ptr, ptr %11, align 8
  %67 = getelementptr inbounds nuw %struct.reroute_msg_t, ptr %66, i32 0, i32 0
  store ptr null, ptr %67, align 8
  %68 = load ptr, ptr %8, align 8
  %69 = icmp ne ptr %68, null
  br i1 %69, label %70, label %71

70:                                               ; preds = %60
  store i32 2, ptr %10, align 4
  br label %73

71:                                               ; preds = %60
  %72 = call ptr @__errno_location() #9
  store i32 -1, ptr %72, align 4
  store ptr null, ptr %2, align 8
  store i32 1, ptr %10, align 4
  br label %73

73:                                               ; preds = %71, %70
  call void @llvm.lifetime.end.p0(i64 8, ptr %11) #8
  %74 = load i32, ptr %10, align 4
  switch i32 %74, label %89 [
    i32 2, label %15
  ]

75:                                               ; preds = %56
  %76 = getelementptr inbounds nuw %struct.slurm_msg, ptr %6, i32 0, i32 13
  %77 = load ptr, ptr %76, align 8
  store ptr %77, ptr %2, align 8
  store i32 1, ptr %10, align 4
  br label %89

78:                                               ; preds = %56
  %79 = getelementptr inbounds nuw %struct.slurm_msg, ptr %6, i32 0, i32 13
  %80 = load ptr, ptr %79, align 8
  %81 = getelementptr inbounds nuw %struct.return_code_msg, ptr %80, i32 0, i32 0
  %82 = load i32, ptr %81, align 4
  store i32 %82, ptr %7, align 4
  %83 = getelementptr inbounds nuw %struct.slurm_msg, ptr %6, i32 0, i32 13
  %84 = load ptr, ptr %83, align 8
  call void @slurm_free_return_code_msg(ptr noundef %84)
  %85 = load i32, ptr %7, align 4
  %86 = call ptr @__errno_location() #9
  store i32 %85, ptr %86, align 4
  store ptr null, ptr %2, align 8
  store i32 1, ptr %10, align 4
  br label %89

87:                                               ; preds = %56
  %88 = call ptr @__errno_location() #9
  store i32 1000, ptr %88, align 4
  store ptr null, ptr %2, align 8
  store i32 1, ptr %10, align 4
  br label %89

89:                                               ; preds = %87, %78, %75, %73, %54, %48
  call void @llvm.lifetime.end.p0(i64 8, ptr %8) #8
  call void @llvm.lifetime.end.p0(i64 4, ptr %7) #8
  call void @llvm.lifetime.end.p0(i64 424, ptr %6) #8
  call void @llvm.lifetime.end.p0(i64 424, ptr %5) #8
  call void @llvm.lifetime.end.p0(i64 24, ptr %4) #8
  %90 = load ptr, ptr %2, align 8
  ret ptr %90
}